; Function Attrs: nounwind uwtable
define internal noundef ptr @gc_set_debug(ptr readnone captures(none) %0, ptr noundef %1) #0 {
  %3 = tail call i32 @PyLong_AsInt(ptr noundef %1) #5
  %4 = icmp eq i32 %3, -1
  br i1 %4, label %5, label %.sink.split

5:                                                ; preds = %2
  %6 = tail call ptr @PyErr_Occurred() #5
  %.not = icmp eq ptr %6, null
  br i1 %.not, label %.sink.split, label %12

.sink.split:                                      ; preds = %5, %2
  %.sink = phi i32 [ %3, %2 ], [ -1, %5 ]
  %7 = tail call align 8 ptr @llvm.threadlocal.address.p0(ptr align 8 @_Py_tss_tstate)
  %8 = load ptr, ptr %7, align 8, !tbaa !4
  %9 = getelementptr inbounds nuw i8, ptr %8, i64 16
  %10 = load ptr, ptr %9, align 8, !tbaa !9
  %11 = getelementptr inbounds nuw i8, ptr %10, i64 7416
  store i32 %.sink, ptr %11, align 8, !tbaa !21
  br label %12

12:                                               ; preds = %.sink.split, %5
  %.0 = phi ptr [ null, %5 ], [ @_Py_NoneStruct, %.sink.split ]
  ret ptr %.0
}